target datalayout = "e-m:e-p270:32:32-p271:32:32-p272:64:64-i64:64-i128:128-f80:128-n8:16:32:64-S128"
target triple = "x86_64-pc-linux-gnu"

%struct._packet_info = type { ptr, ptr, i32, i32, %struct.nstime_t, %struct.nstime_t, %struct.nstime_t, i32, ptr, ptr, ptr, ptr, %struct._address, %struct._address, %struct._address, %struct._address, %struct._address, %struct._address, i32, ptr, i32, %struct.anon, i32, i32, i32, i32, ptr, i32, ptr, ptr, i16, i16, i32, i32, i16, i32, i32, ptr, ptr, ptr, i8, i8, i16, i16, i16, i32, i16, i16, ptr, ptr, ptr, ptr, ptr, i32 }
%struct.nstime_t = type { i64, i32 }
%struct._address = type { i32, i32, ptr, ptr }
%struct.anon = type { i8, [3 x i8] }

@hf_tcp_dstport = internal global i32 0, align 4

; Function Attrs: nounwind uwtable
define internal ptr @tcp_dst_value(ptr noundef %0) #0 {
  %2 = alloca ptr, align 8
  store ptr %0, ptr %2, align 8
  %3 = load ptr, ptr %2, align 8
  %4 = getelementptr inbounds %struct._packet_info, ptr %3, i32 0, i32 50
  %5 = load ptr, ptr %4, align 8
  %6 = load ptr, ptr %2, align 8
  %7 = load i32, ptr @hf_tcp_dstport, align 4
  %8 = load ptr, ptr %2, align 8
  %9 = getelementptr inbounds %struct._packet_info, ptr %8, i32 0, i32 40
  %10 = load i8, ptr %9, align 8
  %11 = zext i8 %10 to i32
  %12 = call ptr @p_get_proto_data(ptr noundef %5, ptr noundef %6, i32 noundef %7, i32 noundef %11)
  ret ptr %12
}