; Function Attrs: nounwind uwtable
define internal ptr @tcp_dst_value(ptr noundef %0) #0 {
  %2 = getelementptr inbounds nuw i8, ptr %0, i64 408
  %3 = load ptr, ptr %2, align 8
  %4 = load i32, ptr @hf_tcp_dstport, align 4
  %5 = getelementptr inbounds nuw i8, ptr %0, i64 376
  %6 = load i8, ptr %5, align 8
  %7 = zext i8 %6 to i32
  %8 = tail call ptr @p_get_proto_data(ptr noundef %3, ptr noundef %0, i32 noundef %4, i32 noundef %7) #20
  ret ptr %8
}